; Function Attrs: mustprogress nounwind uwtable
define dso_local void @_ZN25btHeightfieldTerrainShapeD0Ev(ptr noundef nonnull align 8 dereferenceable(208) %this) unnamed_addr #5 align 2 personality ptr @__gxx_personality_v0 {
entry:
  store ptr getelementptr inbounds ({ [20 x ptr] }, ptr @_ZTV25btHeightfieldTerrainShape, i64 0, i32 0, i64 2), ptr %this, align 8
  %m_data.i.i.i.i = getelementptr inbounds i8, ptr %this, i64 168
  %0 = load ptr, ptr %m_data.i.i.i.i, align 8
  %tobool.not.i.i.i.i = icmp eq ptr %0, null
  br i1 %tobool.not.i.i.i.i, label %_ZN25btHeightfieldTerrainShapeD2Ev.exit, label %if.then.i.i.i.i

if.then.i.i.i.i:                                  ; preds = %entry
  %m_ownsMemory.i.i.i.i = getelementptr inbounds i8, ptr %this, i64 176
  %1 = load i8, ptr %m_ownsMemory.i.i.i.i, align 8
  %2 = and i8 %1, 1
  %tobool2.not.i.i.i.i = icmp eq i8 %2, 0
  br i1 %tobool2.not.i.i.i.i, label %_ZN25btHeightfieldTerrainShapeD2Ev.exit, label %if.then3.i.i.i.i

if.then3.i.i.i.i:                                 ; preds = %if.then.i.i.i.i
  invoke void @_Z21btAlignedFreeInternalPv(ptr noundef nonnull %0)
          to label %_ZN25btHeightfieldTerrainShapeD2Ev.exit unwind label %terminate.lpad.i

terminate.lpad.i:                                 ; preds = %if.then3.i.i.i.i
  %3 = landingpad { ptr, i32 }
          catch ptr null
  %4 = extractvalue { ptr, i32 } %3, 0
  tail call void @__clang_call_terminate(ptr %4) #16
  unreachable

_ZN25btHeightfieldTerrainShapeD2Ev.exit:          ; preds = %entry, %if.then.i.i.i.i, %if.then3.i.i.i.i
  %m_size.i.i.i.i = getelementptr inbounds i8, ptr %this, i64 156
  %m_ownsMemory.i1.i.i.i = getelementptr inbounds i8, ptr %this, i64 176
  %m_capacity.i.i.i.i = getelementptr inbounds i8, ptr %this, i64 160
  store i8 1, ptr %m_ownsMemory.i1.i.i.i, align 8
  store ptr null, ptr %m_data.i.i.i.i, align 8
  store i32 0, ptr %m_size.i.i.i.i, align 4
  store i32 0, ptr %m_capacity.i.i.i.i, align 8
  tail call void @_ZN14btConcaveShapeD2Ev(ptr noundef nonnull align 8 dereferenceable(36) %this) #15
  invoke void @_Z21btAlignedFreeInternalPv(ptr noundef nonnull %this)
          to label %_ZN25btHeightfieldTerrainShapedlEPv.exit unwind label %terminate.lpad.i1

terminate.lpad.i1:                                ; preds = %_ZN25btHeightfieldTerrainShapeD2Ev.exit
  %5 = landingpad { ptr, i32 }
          catch ptr null
  %6 = extractvalue { ptr, i32 } %5, 0
  tail call void @__clang_call_terminate(ptr %6) #16
  unreachable

_ZN25btHeightfieldTerrainShapedlEPv.exit:         ; preds = %_ZN25btHeightfieldTerrainShapeD2Ev.exit
  ret void
}